target datalayout = "e-m:e-p270:32:32-p271:32:32-p272:64:64-i64:64-i128:128-f80:128-n8:16:32:64-S128"
target triple = "x86_64-unknown-linux-gnu"

%"class.QuantLib::FdmLinearOp" = type { ptr }
%"class.std::unique_ptr" = type { %"struct.std::__uniq_ptr_data" }
%"struct.std::__uniq_ptr_data" = type { %"class.std::__uniq_ptr_impl" }
%"class.std::__uniq_ptr_impl" = type { %"class.std::tuple" }
%"class.std::tuple" = type { %"struct.std::_Tuple_impl" }
%"struct.std::_Tuple_impl" = type { %"struct.std::_Head_base.1" }
%"struct.std::_Head_base.1" = type { ptr }
%"class.boost::detail::shared_count" = type { ptr }
%"class.QuantLib::Array" = type { %"class.std::unique_ptr", i64 }
%"class.QuantLib::FdmSquareRootFwdOp" = type { %"class.QuantLib::FdmLinearOpComposite", i64, double, double, double, i32, %"class.boost::shared_ptr", %"class.QuantLib::Array" }
%"class.QuantLib::FdmLinearOpComposite" = type { %"class.QuantLib::FdmLinearOp" }
%"class.boost::shared_ptr" = type { ptr, %"class.boost::detail::shared_count" }

; Function Attrs: mustprogress uwtable
define noundef double @_ZNK8QuantLib18FdmSquareRootFwdOp5zetamEm(ptr noundef nonnull align 8 dereferenceable(80) %this, i64 noundef %i) #4 align 2 {
entry:
  %this.addr = alloca ptr, align 8
  %i.addr = alloca i64, align 8
  store ptr %this, ptr %this.addr, align 8, !tbaa !3
  store i64 %i, ptr %i.addr, align 8, !tbaa !9
  %this1 = load ptr, ptr %this.addr, align 8
  %0 = load i64, ptr %i.addr, align 8, !tbaa !9
  %sub = sub i64 %0, 1
  %call = call noundef double @_ZNK8QuantLib18FdmSquareRootFwdOp1hEm(ptr noundef nonnull align 8 dereferenceable(80) %this1, i64 noundef %sub)
  %1 = load i64, ptr %i.addr, align 8, !tbaa !9
  %sub2 = sub i64 %1, 1
  %call3 = call noundef double @_ZNK8QuantLib18FdmSquareRootFwdOp1hEm(ptr noundef nonnull align 8 dereferenceable(80) %this1, i64 noundef %sub2)
  %2 = load i64, ptr %i.addr, align 8, !tbaa !9
  %call4 = call noundef double @_ZNK8QuantLib18FdmSquareRootFwdOp1hEm(ptr noundef nonnull align 8 dereferenceable(80) %this1, i64 noundef %2)
  %add = fadd double %call3, %call4
  %mul = fmul double %call, %add
  ret double %mul
}

; Function Attrs: mustprogress uwtable
define noundef double @_ZNK8QuantLib18FdmSquareRootFwdOp1hEm(ptr noundef nonnull align 8 dereferenceable(80) %this, i64 noundef %i) #4 align 2 {
entry:
  %this.addr = alloca ptr, align 8
  %i.addr = alloca i64, align 8
  store ptr %this, ptr %this.addr, align 8, !tbaa !3
  store i64 %i, ptr %i.addr, align 8, !tbaa !9
  %this1 = load ptr, ptr %this.addr, align 8
  %0 = load i64, ptr %i.addr, align 8, !tbaa !9
  %add = add i64 %0, 1
  %call = call noundef double @_ZNK8QuantLib18FdmSquareRootFwdOp1vEm(ptr noundef nonnull align 8 dereferenceable(80) %this1, i64 noundef %add)
  %1 = load i64, ptr %i.addr, align 8, !tbaa !9
  %call2 = call noundef double @_ZNK8QuantLib18FdmSquareRootFwdOp1vEm(ptr noundef nonnull align 8 dereferenceable(80) %this1, i64 noundef %1)
  %sub = fsub double %call, %call2
  ret double %sub
}

; Function Attrs: mustprogress uwtable
define noundef double @_ZNK8QuantLib18FdmSquareRootFwdOp7f0PowerEv(ptr noundef nonnull align 8 dereferenceable(80) %this) #4 align 2 {
entry:
  %this.addr = alloca ptr, align 8
  %n = alloca i64, align 8
  %mu = alloca double, align 8
  %a = alloca double, align 8
  %alpha = alloca double, align 8
  %nu = alloca double, align 8
  store ptr %this, ptr %this.addr, align 8, !tbaa !3
  %this1 = load ptr, ptr %this.addr, align 8
  call void @llvm.lifetime.start.p0(i64 8, ptr %n) #3
  store i64 1, ptr %n, align 8, !tbaa !9
  call void @llvm.lifetime.start.p0(i64 8, ptr %mu) #3
  %kappa_ = getelementptr inbounds nuw %"class.QuantLib::FdmSquareRootFwdOp", ptr %this1, i32 0, i32 2
  %0 = load double, ptr %kappa_, align 8, !tbaa !28
  %call = call noundef double @_ZNK8QuantLib18FdmSquareRootFwdOp1vEm(ptr noundef nonnull align 8 dereferenceable(80) %this1, i64 noundef 1)
  %theta_ = getelementptr inbounds nuw %"class.QuantLib::FdmSquareRootFwdOp", ptr %this1, i32 0, i32 3
  %1 = load double, ptr %theta_, align 8, !tbaa !29
  %add = fadd double %call, %1
  %mul = fmul double %0, %add
  store double %mul, ptr %mu, align 8, !tbaa !7
  call void @llvm.lifetime.start.p0(i64 8, ptr %a) #3
  %call2 = call noundef double @_ZNK8QuantLib18FdmSquareRootFwdOp1hEm(ptr noundef nonnull align 8 dereferenceable(80) %this1, i64 noundef 0)
  %call4 = call noundef double @_ZNK8QuantLib18FdmSquareRootFwdOp1hEm(ptr noundef nonnull align 8 dereferenceable(80) %this1, i64 noundef 1)
  %2 = call double @llvm.fmuladd.f64(double 2.000000e+00, double %call2, double %call4)
  %fneg = fneg double %2
  %call5 = call noundef double @_ZNK8QuantLib18FdmSquareRootFwdOp5zetamEm(ptr noundef nonnull align 8 dereferenceable(80) %this1, i64 noundef 1)
  %div = fdiv double %fneg, %call5
  store double %div, ptr %a, align 8, !tbaa !7
  call void @llvm.lifetime.start.p0(i64 8, ptr %alpha) #3
  %sigma_ = getelementptr inbounds nuw %"class.QuantLib::FdmSquareRootFwdOp", ptr %this1, i32 0, i32 4
  %3 = load double, ptr %sigma_, align 8, !tbaa !30
  %sigma_6 = getelementptr inbounds nuw %"class.QuantLib::FdmSquareRootFwdOp", ptr %this1, i32 0, i32 4
  %4 = load double, ptr %sigma_6, align 8, !tbaa !30
  %mul7 = fmul double %3, %4
  %call8 = call noundef double @_ZNK8QuantLib18FdmSquareRootFwdOp1vEm(ptr noundef nonnull align 8 dereferenceable(80) %this1, i64 noundef 1)
  %mul9 = fmul double %mul7, %call8
  %call10 = call noundef double @_ZNK8QuantLib18FdmSquareRootFwdOp5zetamEm(ptr noundef nonnull align 8 dereferenceable(80) %this1, i64 noundef 1)
  %div11 = fdiv double %mul9, %call10
  %5 = load double, ptr %mu, align 8, !tbaa !7
  %call12 = call noundef double @_ZNK8QuantLib18FdmSquareRootFwdOp1hEm(ptr noundef nonnull align 8 dereferenceable(80) %this1, i64 noundef 1)
  %mul13 = fmul double %5, %call12
  %call14 = call noundef double @_ZNK8QuantLib18FdmSquareRootFwdOp5zetamEm(ptr noundef nonnull align 8 dereferenceable(80) %this1, i64 noundef 1)
  %div15 = fdiv double %mul13, %call14
  %sub = fsub double %div11, %div15
  store double %sub, ptr %alpha, align 8, !tbaa !7
  call void @llvm.lifetime.start.p0(i64 8, ptr %nu) #3
  %6 = load double, ptr %a, align 8, !tbaa !7
  %call16 = call noundef double @_ZNK8QuantLib18FdmSquareRootFwdOp1vEm(ptr noundef nonnull align 8 dereferenceable(80) %this1, i64 noundef 0)
  %kappa_18 = getelementptr inbounds nuw %"class.QuantLib::FdmSquareRootFwdOp", ptr %this1, i32 0, i32 2
  %7 = load double, ptr %kappa_18, align 8, !tbaa !28
  %call19 = call noundef double @_ZNK8QuantLib18FdmSquareRootFwdOp1vEm(ptr noundef nonnull align 8 dereferenceable(80) %this1, i64 noundef 0)
  %mul20 = fmul double %7, %call19
  %sigma_21 = getelementptr inbounds nuw %"class.QuantLib::FdmSquareRootFwdOp", ptr %this1, i32 0, i32 4
  %8 = load double, ptr %sigma_21, align 8, !tbaa !30
  %sigma_22 = getelementptr inbounds nuw %"class.QuantLib::FdmSquareRootFwdOp", ptr %this1, i32 0, i32 4
  %9 = load double, ptr %sigma_22, align 8, !tbaa !30
  %mul23 = fmul double %8, %9
  %div24 = fdiv double %mul20, %mul23
  %mul25 = fmul double 2.000000e+00, %div24
  %10 = call double @llvm.fmuladd.f64(double %6, double %call16, double %mul25)
  store double %10, ptr %nu, align 8, !tbaa !7
  %11 = load double, ptr %alpha, align 8, !tbaa !7
  %12 = load double, ptr %nu, align 8, !tbaa !7
  %div26 = fdiv double %11, %12
  %call27 = call noundef double @_ZNK8QuantLib18FdmSquareRootFwdOp1vEm(ptr noundef nonnull align 8 dereferenceable(80) %this1, i64 noundef 0)
  %mul28 = fmul double %div26, %call27
  call void @llvm.lifetime.end.p0(i64 8, ptr %nu) #3
  call void @llvm.lifetime.end.p0(i64 8, ptr %alpha) #3
  call void @llvm.lifetime.end.p0(i64 8, ptr %a) #3
  call void @llvm.lifetime.end.p0(i64 8, ptr %mu) #3
  call void @llvm.lifetime.end.p0(i64 8, ptr %n) #3
  ret double %mul28
}