; Function Attrs: mustprogress uwtable
define noundef double @_ZNK8QuantLib18FdmSquareRootFwdOp7f0PowerEv(ptr nocapture noundef nonnull readonly align 8 dereferenceable(80) %this) local_unnamed_addr #3 align 2 personality ptr @__gxx_personality_v0 {
entry:
  %kappa_ = getelementptr inbounds nuw i8, ptr %this, i64 16
  %0 = load double, ptr %kappa_, align 8, !tbaa !24
  %call = tail call noundef double @_ZNK8QuantLib18FdmSquareRootFwdOp1vEm(ptr noundef nonnull align 8 dereferenceable(80) %this, i64 noundef 1)
  %theta_ = getelementptr inbounds nuw i8, ptr %this, i64 24
  %1 = load double, ptr %theta_, align 8, !tbaa !25
  %call.i = tail call noundef double @_ZNK8QuantLib18FdmSquareRootFwdOp1vEm(ptr noundef nonnull readonly align 8 dereferenceable(80) %this, i64 noundef 1)
  %transform_.i58 = getelementptr inbounds nuw i8, ptr %this, i64 40
  %2 = load i32, ptr %transform_.i58, align 8, !tbaa !27
  %cmp7.i59 = icmp eq i32 %2, 2
  %v_9.i60 = getelementptr inbounds nuw i8, ptr %this, i64 64
  %3 = load ptr, ptr %v_9.i60, align 8, !tbaa !31
  %4 = load double, ptr %3, align 8, !tbaa !36
  br i1 %cmp7.i59, label %if.then8.i68, label %if.else13.i61

if.then8.i68:                                     ; preds = %entry
  %arrayidx.i10.i69 = getelementptr inbounds nuw i8, ptr %3, i64 8
  %5 = load double, ptr %arrayidx.i10.i69, align 8, !tbaa !36
  %neg.i70 = fneg double %5
  %6 = tail call double @llvm.fmuladd.f64(double %4, double 2.000000e+00, double %neg.i70)
  br label %_ZNK8QuantLib18FdmSquareRootFwdOp1vEm.exit71

if.else13.i61:                                    ; preds = %entry
  %mul.i62 = fmul double %4, 5.000000e-01
  %arrayidx.i13.i63 = getelementptr inbounds nuw i8, ptr %3, i64 8
  %7 = load double, ptr %arrayidx.i13.i63, align 8, !tbaa !36
  %sub23.i64 = fsub double %7, %4
  %8 = tail call double @llvm.fmuladd.f64(double %sub23.i64, double -1.000000e-02, double %4)
  %cmp.i.i65 = fcmp olt double %mul.i62, %8
  %.sroa.speculated.i66 = select i1 %cmp.i.i65, double %8, double %mul.i62
  br label %_ZNK8QuantLib18FdmSquareRootFwdOp1vEm.exit71

_ZNK8QuantLib18FdmSquareRootFwdOp1vEm.exit71:     ; preds = %if.then8.i68, %if.else13.i61
  %retval.0.i67 = phi double [ %6, %if.then8.i68 ], [ %.sroa.speculated.i66, %if.else13.i61 ]
  %call.i1 = tail call noundef double @_ZNK8QuantLib18FdmSquareRootFwdOp1vEm(ptr noundef nonnull readonly align 8 dereferenceable(80) %this, i64 noundef 2)
  %call2.i2 = tail call noundef double @_ZNK8QuantLib18FdmSquareRootFwdOp1vEm(ptr noundef nonnull readonly align 8 dereferenceable(80) %this, i64 noundef 1)
  %call.i.i = tail call noundef double @_ZNK8QuantLib18FdmSquareRootFwdOp1vEm(ptr noundef nonnull readonly align 8 dereferenceable(80) %this, i64 noundef 1)
  %9 = load i32, ptr %transform_.i58, align 8, !tbaa !27
  %cmp7.i87 = icmp eq i32 %9, 2
  %10 = load ptr, ptr %v_9.i60, align 8, !tbaa !31
  %11 = load double, ptr %10, align 8, !tbaa !36
  br i1 %cmp7.i87, label %if.then8.i96, label %if.else13.i89

if.then8.i96:                                     ; preds = %_ZNK8QuantLib18FdmSquareRootFwdOp1vEm.exit71
  %arrayidx.i10.i97 = getelementptr inbounds nuw i8, ptr %10, i64 8
  %12 = load double, ptr %arrayidx.i10.i97, align 8, !tbaa !36
  %neg.i98 = fneg double %12
  %13 = tail call double @llvm.fmuladd.f64(double %11, double 2.000000e+00, double %neg.i98)
  br label %_ZNK8QuantLib18FdmSquareRootFwdOp1vEm.exit99

if.else13.i89:                                    ; preds = %_ZNK8QuantLib18FdmSquareRootFwdOp1vEm.exit71
  %mul.i90 = fmul double %11, 5.000000e-01
  %arrayidx.i13.i91 = getelementptr inbounds nuw i8, ptr %10, i64 8
  %14 = load double, ptr %arrayidx.i13.i91, align 8, !tbaa !36
  %sub23.i92 = fsub double %14, %11
  %15 = tail call double @llvm.fmuladd.f64(double %sub23.i92, double -1.000000e-02, double %11)
  %cmp.i.i93 = fcmp olt double %mul.i90, %15
  %.sroa.speculated.i94 = select i1 %cmp.i.i93, double %15, double %mul.i90
  br label %_ZNK8QuantLib18FdmSquareRootFwdOp1vEm.exit99

_ZNK8QuantLib18FdmSquareRootFwdOp1vEm.exit99:     ; preds = %if.then8.i96, %if.else13.i89
  %retval.0.i95 = phi double [ %13, %if.then8.i96 ], [ %.sroa.speculated.i94, %if.else13.i89 ]
  %call.i3.i = tail call noundef double @_ZNK8QuantLib18FdmSquareRootFwdOp1vEm(ptr noundef nonnull readonly align 8 dereferenceable(80) %this, i64 noundef 1)
  %16 = load i32, ptr %transform_.i58, align 8, !tbaa !27
  %cmp7.i73 = icmp eq i32 %16, 2
  %17 = load ptr, ptr %v_9.i60, align 8, !tbaa !31
  %18 = load double, ptr %17, align 8, !tbaa !36
  br i1 %cmp7.i73, label %if.then8.i82, label %if.else13.i75

if.then8.i82:                                     ; preds = %_ZNK8QuantLib18FdmSquareRootFwdOp1vEm.exit99
  %arrayidx.i10.i83 = getelementptr inbounds nuw i8, ptr %17, i64 8
  %19 = load double, ptr %arrayidx.i10.i83, align 8, !tbaa !36
  %neg.i84 = fneg double %19
  %20 = tail call double @llvm.fmuladd.f64(double %18, double 2.000000e+00, double %neg.i84)
  br label %_ZNK8QuantLib18FdmSquareRootFwdOp1vEm.exit85

if.else13.i75:                                    ; preds = %_ZNK8QuantLib18FdmSquareRootFwdOp1vEm.exit99
  %mul.i76 = fmul double %18, 5.000000e-01
  %arrayidx.i13.i77 = getelementptr inbounds nuw i8, ptr %17, i64 8
  %21 = load double, ptr %arrayidx.i13.i77, align 8, !tbaa !36
  %sub23.i78 = fsub double %21, %18
  %22 = tail call double @llvm.fmuladd.f64(double %sub23.i78, double -1.000000e-02, double %18)
  %cmp.i.i79 = fcmp olt double %mul.i76, %22
  %.sroa.speculated.i80 = select i1 %cmp.i.i79, double %22, double %mul.i76
  br label %_ZNK8QuantLib18FdmSquareRootFwdOp1vEm.exit85

_ZNK8QuantLib18FdmSquareRootFwdOp1vEm.exit85:     ; preds = %if.then8.i82, %if.else13.i75
  %retval.0.i81 = phi double [ %20, %if.then8.i82 ], [ %.sroa.speculated.i80, %if.else13.i75 ]
  %call.i6.i = tail call noundef double @_ZNK8QuantLib18FdmSquareRootFwdOp1vEm(ptr noundef nonnull readonly align 8 dereferenceable(80) %this, i64 noundef 2)
  %call2.i7.i = tail call noundef double @_ZNK8QuantLib18FdmSquareRootFwdOp1vEm(ptr noundef nonnull readonly align 8 dereferenceable(80) %this, i64 noundef 1)
  %sigma_ = getelementptr inbounds nuw i8, ptr %this, i64 32
  %23 = load double, ptr %sigma_, align 8, !tbaa !26
  %call8 = tail call noundef double @_ZNK8QuantLib18FdmSquareRootFwdOp1vEm(ptr noundef nonnull align 8 dereferenceable(80) %this, i64 noundef 1)
  %call.i.i4 = tail call noundef double @_ZNK8QuantLib18FdmSquareRootFwdOp1vEm(ptr noundef nonnull readonly align 8 dereferenceable(80) %this, i64 noundef 1)
  %24 = load i32, ptr %transform_.i58, align 8, !tbaa !27
  %cmp7.i115 = icmp eq i32 %24, 2
  %25 = load ptr, ptr %v_9.i60, align 8, !tbaa !31
  %26 = load double, ptr %25, align 8, !tbaa !36
  br i1 %cmp7.i115, label %if.then8.i124, label %if.else13.i117

if.then8.i124:                                    ; preds = %_ZNK8QuantLib18FdmSquareRootFwdOp1vEm.exit85
  %arrayidx.i10.i125 = getelementptr inbounds nuw i8, ptr %25, i64 8
  %27 = load double, ptr %arrayidx.i10.i125, align 8, !tbaa !36
  %neg.i126 = fneg double %27
  %28 = tail call double @llvm.fmuladd.f64(double %26, double 2.000000e+00, double %neg.i126)
  br label %_ZNK8QuantLib18FdmSquareRootFwdOp1vEm.exit127

if.else13.i117:                                   ; preds = %_ZNK8QuantLib18FdmSquareRootFwdOp1vEm.exit85
  %mul.i118 = fmul double %26, 5.000000e-01
  %arrayidx.i13.i119 = getelementptr inbounds nuw i8, ptr %25, i64 8
  %29 = load double, ptr %arrayidx.i13.i119, align 8, !tbaa !36
  %sub23.i120 = fsub double %29, %26
  %30 = tail call double @llvm.fmuladd.f64(double %sub23.i120, double -1.000000e-02, double %26)
  %cmp.i.i121 = fcmp olt double %mul.i118, %30
  %.sroa.speculated.i122 = select i1 %cmp.i.i121, double %30, double %mul.i118
  br label %_ZNK8QuantLib18FdmSquareRootFwdOp1vEm.exit127

_ZNK8QuantLib18FdmSquareRootFwdOp1vEm.exit127:    ; preds = %if.then8.i124, %if.else13.i117
  %retval.0.i123 = phi double [ %28, %if.then8.i124 ], [ %.sroa.speculated.i122, %if.else13.i117 ]
  %call.i3.i7 = tail call noundef double @_ZNK8QuantLib18FdmSquareRootFwdOp1vEm(ptr noundef nonnull readonly align 8 dereferenceable(80) %this, i64 noundef 1)
  %31 = load i32, ptr %transform_.i58, align 8, !tbaa !27
  %cmp7.i101 = icmp eq i32 %31, 2
  %32 = load ptr, ptr %v_9.i60, align 8, !tbaa !31
  %33 = load double, ptr %32, align 8, !tbaa !36
  br i1 %cmp7.i101, label %if.then8.i110, label %if.else13.i103

if.then8.i110:                                    ; preds = %_ZNK8QuantLib18FdmSquareRootFwdOp1vEm.exit127
  %arrayidx.i10.i111 = getelementptr inbounds nuw i8, ptr %32, i64 8
  %34 = load double, ptr %arrayidx.i10.i111, align 8, !tbaa !36
  %neg.i112 = fneg double %34
  %35 = tail call double @llvm.fmuladd.f64(double %33, double 2.000000e+00, double %neg.i112)
  br label %_ZNK8QuantLib18FdmSquareRootFwdOp1vEm.exit113

if.else13.i103:                                   ; preds = %_ZNK8QuantLib18FdmSquareRootFwdOp1vEm.exit127
  %mul.i104 = fmul double %33, 5.000000e-01
  %arrayidx.i13.i105 = getelementptr inbounds nuw i8, ptr %32, i64 8
  %36 = load double, ptr %arrayidx.i13.i105, align 8, !tbaa !36
  %sub23.i106 = fsub double %36, %33
  %37 = tail call double @llvm.fmuladd.f64(double %sub23.i106, double -1.000000e-02, double %33)
  %cmp.i.i107 = fcmp olt double %mul.i104, %37
  %.sroa.speculated.i108 = select i1 %cmp.i.i107, double %37, double %mul.i104
  br label %_ZNK8QuantLib18FdmSquareRootFwdOp1vEm.exit113

_ZNK8QuantLib18FdmSquareRootFwdOp1vEm.exit113:    ; preds = %if.then8.i110, %if.else13.i103
  %retval.0.i109 = phi double [ %35, %if.then8.i110 ], [ %.sroa.speculated.i108, %if.else13.i103 ]
  %call.i6.i10 = tail call noundef double @_ZNK8QuantLib18FdmSquareRootFwdOp1vEm(ptr noundef nonnull readonly align 8 dereferenceable(80) %this, i64 noundef 2)
  %call2.i7.i11 = tail call noundef double @_ZNK8QuantLib18FdmSquareRootFwdOp1vEm(ptr noundef nonnull readonly align 8 dereferenceable(80) %this, i64 noundef 1)
  %call.i15 = tail call noundef double @_ZNK8QuantLib18FdmSquareRootFwdOp1vEm(ptr noundef nonnull readonly align 8 dereferenceable(80) %this, i64 noundef 2)
  %call2.i16 = tail call noundef double @_ZNK8QuantLib18FdmSquareRootFwdOp1vEm(ptr noundef nonnull readonly align 8 dereferenceable(80) %this, i64 noundef 1)
  %call.i.i18 = tail call noundef double @_ZNK8QuantLib18FdmSquareRootFwdOp1vEm(ptr noundef nonnull readonly align 8 dereferenceable(80) %this, i64 noundef 1)
  %38 = load i32, ptr %transform_.i58, align 8, !tbaa !27
  %cmp7.i143 = icmp eq i32 %38, 2
  %39 = load ptr, ptr %v_9.i60, align 8, !tbaa !31
  %40 = load double, ptr %39, align 8, !tbaa !36
  br i1 %cmp7.i143, label %if.then8.i152, label %if.else13.i145

if.then8.i152:                                    ; preds = %_ZNK8QuantLib18FdmSquareRootFwdOp1vEm.exit113
  %arrayidx.i10.i153 = getelementptr inbounds nuw i8, ptr %39, i64 8
  %41 = load double, ptr %arrayidx.i10.i153, align 8, !tbaa !36
  %neg.i154 = fneg double %41
  %42 = tail call double @llvm.fmuladd.f64(double %40, double 2.000000e+00, double %neg.i154)
  br label %_ZNK8QuantLib18FdmSquareRootFwdOp1vEm.exit155

if.else13.i145:                                   ; preds = %_ZNK8QuantLib18FdmSquareRootFwdOp1vEm.exit113
  %mul.i146 = fmul double %40, 5.000000e-01
  %arrayidx.i13.i147 = getelementptr inbounds nuw i8, ptr %39, i64 8
  %43 = load double, ptr %arrayidx.i13.i147, align 8, !tbaa !36
  %sub23.i148 = fsub double %43, %40
  %44 = tail call double @llvm.fmuladd.f64(double %sub23.i148, double -1.000000e-02, double %40)
  %cmp.i.i149 = fcmp olt double %mul.i146, %44
  %.sroa.speculated.i150 = select i1 %cmp.i.i149, double %44, double %mul.i146
  br label %_ZNK8QuantLib18FdmSquareRootFwdOp1vEm.exit155

_ZNK8QuantLib18FdmSquareRootFwdOp1vEm.exit155:    ; preds = %if.then8.i152, %if.else13.i145
  %retval.0.i151 = phi double [ %42, %if.then8.i152 ], [ %.sroa.speculated.i150, %if.else13.i145 ]
  %call.i3.i21 = tail call noundef double @_ZNK8QuantLib18FdmSquareRootFwdOp1vEm(ptr noundef nonnull readonly align 8 dereferenceable(80) %this, i64 noundef 1)
  %45 = load i32, ptr %transform_.i58, align 8, !tbaa !27
  %cmp7.i129 = icmp eq i32 %45, 2
  %46 = load ptr, ptr %v_9.i60, align 8, !tbaa !31
  %47 = load double, ptr %46, align 8, !tbaa !36
  br i1 %cmp7.i129, label %if.then8.i138, label %if.else13.i131

if.then8.i138:                                    ; preds = %_ZNK8QuantLib18FdmSquareRootFwdOp1vEm.exit155
  %arrayidx.i10.i139 = getelementptr inbounds nuw i8, ptr %46, i64 8
  %48 = load double, ptr %arrayidx.i10.i139, align 8, !tbaa !36
  %neg.i140 = fneg double %48
  %49 = tail call double @llvm.fmuladd.f64(double %47, double 2.000000e+00, double %neg.i140)
  br label %_ZNK8QuantLib18FdmSquareRootFwdOp1vEm.exit141

if.else13.i131:                                   ; preds = %_ZNK8QuantLib18FdmSquareRootFwdOp1vEm.exit155
  %mul.i132 = fmul double %47, 5.000000e-01
  %arrayidx.i13.i133 = getelementptr inbounds nuw i8, ptr %46, i64 8
  %50 = load double, ptr %arrayidx.i13.i133, align 8, !tbaa !36
  %sub23.i134 = fsub double %50, %47
  %51 = tail call double @llvm.fmuladd.f64(double %sub23.i134, double -1.000000e-02, double %47)
  %cmp.i.i135 = fcmp olt double %mul.i132, %51
  %.sroa.speculated.i136 = select i1 %cmp.i.i135, double %51, double %mul.i132
  br label %_ZNK8QuantLib18FdmSquareRootFwdOp1vEm.exit141

_ZNK8QuantLib18FdmSquareRootFwdOp1vEm.exit141:    ; preds = %if.then8.i138, %if.else13.i131
  %retval.0.i137 = phi double [ %49, %if.then8.i138 ], [ %.sroa.speculated.i136, %if.else13.i131 ]
  %call.i6.i24 = tail call noundef double @_ZNK8QuantLib18FdmSquareRootFwdOp1vEm(ptr noundef nonnull readonly align 8 dereferenceable(80) %this, i64 noundef 2)
  %call2.i7.i25 = tail call noundef double @_ZNK8QuantLib18FdmSquareRootFwdOp1vEm(ptr noundef nonnull readonly align 8 dereferenceable(80) %this, i64 noundef 1)
  %52 = load i32, ptr %transform_.i58, align 8, !tbaa !27
  %cmp7.i = icmp eq i32 %52, 2
  %53 = load ptr, ptr %v_9.i60, align 8, !tbaa !31
  %54 = load double, ptr %53, align 8, !tbaa !36
  br i1 %cmp7.i, label %if.then8.i54, label %if.else13.i47

if.then8.i54:                                     ; preds = %_ZNK8QuantLib18FdmSquareRootFwdOp1vEm.exit141
  %arrayidx.i10.i = getelementptr inbounds nuw i8, ptr %53, i64 8
  %55 = load double, ptr %arrayidx.i10.i, align 8, !tbaa !36
  %neg.i = fneg double %55
  %56 = tail call double @llvm.fmuladd.f64(double %54, double 2.000000e+00, double %neg.i)
  %neg.i56 = fneg double %55
  %57 = tail call double @llvm.fmuladd.f64(double %54, double 2.000000e+00, double %neg.i56)
  br label %_ZNK8QuantLib18FdmSquareRootFwdOp1vEm.exit57

if.else13.i47:                                    ; preds = %_ZNK8QuantLib18FdmSquareRootFwdOp1vEm.exit141
  %mul.i29 = fmul double %54, 5.000000e-01
  %arrayidx.i13.i = getelementptr inbounds nuw i8, ptr %53, i64 8
  %58 = load double, ptr %arrayidx.i13.i, align 8, !tbaa !36
  %sub23.i = fsub double %58, %54
  %59 = tail call double @llvm.fmuladd.f64(double %sub23.i, double -1.000000e-02, double %54)
  %cmp.i.i = fcmp olt double %mul.i29, %59
  %.sroa.speculated.i = select i1 %cmp.i.i, double %59, double %mul.i29
  %mul.i48 = fmul double %54, 5.000000e-01
  %sub23.i50 = fsub double %58, %54
  %60 = tail call double @llvm.fmuladd.f64(double %sub23.i50, double -1.000000e-02, double %54)
  %cmp.i.i51 = fcmp olt double %mul.i48, %60
  %.sroa.speculated.i52 = select i1 %cmp.i.i51, double %60, double %mul.i48
  br label %_ZNK8QuantLib18FdmSquareRootFwdOp1vEm.exit57

_ZNK8QuantLib18FdmSquareRootFwdOp1vEm.exit57:     ; preds = %if.then8.i54, %if.else13.i47
  %retval.0.i157160 = phi double [ %56, %if.then8.i54 ], [ %.sroa.speculated.i, %if.else13.i47 ]
  %retval.0.i53 = phi double [ %57, %if.then8.i54 ], [ %.sroa.speculated.i52, %if.else13.i47 ]
  %61 = load double, ptr %kappa_, align 8, !tbaa !24
  %62 = load double, ptr %sigma_, align 8, !tbaa !26
  %mul7 = fmul double %23, %23
  %mul9 = fmul double %mul7, %call8
  %sub.i.i6 = fsub double %call.i.i4, %retval.0.i123
  %sub.i5.i9 = fsub double %call.i3.i7, %retval.0.i109
  %sub.i8.i12 = fsub double %call.i6.i10, %call2.i7.i11
  %add.i13 = fadd double %sub.i5.i9, %sub.i8.i12
  %mul.i14 = fmul double %sub.i.i6, %add.i13
  %div11 = fdiv double %mul9, %mul.i14
  %add = fadd double %call, %1
  %mul = fmul double %0, %add
  %sub.i17 = fsub double %call.i15, %call2.i16
  %mul13 = fmul double %mul, %sub.i17
  %sub.i.i20 = fsub double %call.i.i18, %retval.0.i151
  %sub.i5.i23 = fsub double %call.i3.i21, %retval.0.i137
  %sub.i8.i26 = fsub double %call.i6.i24, %call2.i7.i25
  %add.i27 = fadd double %sub.i5.i23, %sub.i8.i26
  %mul.i28 = fmul double %sub.i.i20, %add.i27
  %div15 = fdiv double %mul13, %mul.i28
  %sub = fsub double %div11, %div15
  %sub.i = fsub double %call.i, %retval.0.i67
  %sub.i3 = fsub double %call.i1, %call2.i2
  %63 = tail call double @llvm.fmuladd.f64(double %sub.i, double 2.000000e+00, double %sub.i3)
  %fneg = fneg double %63
  %sub.i.i = fsub double %call.i.i, %retval.0.i95
  %sub.i5.i = fsub double %call.i3.i, %retval.0.i81
  %sub.i8.i = fsub double %call.i6.i, %call2.i7.i
  %add.i = fadd double %sub.i5.i, %sub.i8.i
  %mul.i = fmul double %sub.i.i, %add.i
  %div = fdiv double %fneg, %mul.i
  %mul20 = fmul double %retval.0.i157160, %61
  %mul23 = fmul double %62, %62
  %div24 = fdiv double %mul20, %mul23
  %mul25 = fmul double %div24, 2.000000e+00
  %64 = tail call double @llvm.fmuladd.f64(double %div, double %retval.0.i157160, double %mul25)
  %div26 = fdiv double %sub, %64
  %mul28 = fmul double %div26, %retval.0.i53
  ret double %mul28
}